; Function Attrs: mustprogress nofree norecurse nosync nounwind willreturn memory(readwrite, inaccessiblemem: none) uwtable
define internal void @"_ZNSt17_Function_handlerIFvldEZN3gmx19StatePropagatorData7Element24registerLastStepCallbackEvE3$_0E9_M_invokeERKSt9_Any_dataOlOd"(ptr nocapture noundef nonnull readonly align 8 dereferenceable(16) %0, ptr nocapture noundef nonnull readonly align 8 dereferenceable(8) %1, ptr nocapture nonnull readonly align 8 %2) #25 align 2 {
  %.val = load ptr, ptr %0, align 8
  %.val3 = load i64, ptr %1, align 8
  %4 = getelementptr inbounds i8, ptr %.val, i64 184
  store i64 %.val3, ptr %4, align 8
  %5 = getelementptr inbounds i8, ptr %.val, i64 200
  %6 = load i64, ptr %5, align 8
  %7 = icmp eq i64 %6, %.val3
  %8 = getelementptr inbounds i8, ptr %.val, i64 176
  %9 = zext i1 %7 to i8
  store i8 %9, ptr %8, align 8
  ret void
}